; Function Attrs: mustprogress nofree norecurse nosync nounwind willreturn memory(read, inaccessiblemem: none) uwtable
define dso_local <2 x float> @_ZN5ImGui32GetMousePosOnOpeningCurrentPopupEv() local_unnamed_addr #43 {
  %1 = load ptr, ptr @GImGui, align 8, !tbaa !211
  %2 = getelementptr inbounds nuw i8, ptr %1, i64 7744
  %3 = load i32, ptr %2, align 8, !tbaa !833
  %4 = icmp sgt i32 %3, 0
  br i1 %4, label %5, label %11

5:                                                ; preds = %0
  %6 = getelementptr inbounds nuw i8, ptr %1, i64 7736
  %7 = load ptr, ptr %6, align 8, !tbaa !536
  %8 = zext nneg i32 %3 to i64
  %9 = getelementptr %struct.ImGuiPopupData, ptr %7, i64 %8
  %10 = getelementptr i8, ptr %9, i64 -12
  br label %13

11:                                               ; preds = %0
  %12 = getelementptr inbounds nuw i8, ptr %1, i64 224
  br label %13

13:                                               ; preds = %11, %5
  %.sroa.0.0.in = phi ptr [ %10, %5 ], [ %12, %11 ]
  %.sroa.0.0 = load <2 x float>, ptr %.sroa.0.0.in, align 4
  ret <2 x float> %.sroa.0.0
}